target datalayout = "e-m:e-p270:32:32-p271:32:32-p272:64:64-i64:64-i128:128-f80:128-n8:16:32:64-S128"
target triple = "x86_64-pc-linux-gnu"

%struct.pe_image_file_hdr = type { i32, i16, i16, i32, i32, i32, i16, i16 }
%struct.pe_image_optional_hdr64 = type { i16, i8, i8, i32, i32, i32, i32, i32, i64, i32, i32, i16, i16, i16, i16, i16, i16, i32, i32, i32, i32, i16, i16, i64, i64, i64, i64, i32, i32 }
%struct.pe_image_data_dir = type { i32, i32 }
%struct.cli_bc_ctx = type { i8, i16, i32, ptr, ptr, i32, i32, ptr, ptr, ptr, i32, i32, i64, ptr, ptr, ptr, %struct.cli_bc_hooks, %struct.cli_exe_info, [64 x i32], [64 x i32], i32, ptr, ptr, i32, i32, i32, i32, ptr, i32, ptr, ptr, i32, i32, i32, i32, i32, i32, ptr, ptr, ptr, ptr, ptr, ptr, ptr, i32, i32, i32, i32, ptr, ptr, ptr, ptr, ptr, i32, i32, i32, i32, ptr, ptr, ptr, ptr, i32, i32, i32, ptr, i32, ptr, i32, i32, ptr, i32 }
%struct.cli_bc_hooks = type { ptr, ptr, ptr, ptr, ptr }
%struct.cli_exe_info = type { ptr, i32, i32, i16, i32, i32, %struct.cli_hashset, i32, i32, i32, i32, i32, i32, i32, i32, i32, %struct.pe_image_file_hdr, %union.anon, [16 x %struct.pe_image_data_dir] }
%struct.cli_hashset = type { ptr, ptr, ptr, i32, i32, i32, i32 }
%union.anon = type { %struct.pe_image_optional_hdr64 }

@.str = private unnamed_addr constant [37 x i8] c"Failed to allocate bytecode context\0A\00", align 1

; Function Attrs: nounwind uwtable
define internal void @bytecode_context_initialize(ptr noundef %0) #0 {
  %2 = alloca ptr, align 8
  store ptr %0, ptr %2, align 8
  %3 = load ptr, ptr %2, align 8
  call void @llvm.memset.p0.i64(ptr align 8 %3, i8 0, i64 1344, i1 false)
  %4 = load ptr, ptr %2, align 8
  %5 = getelementptr inbounds %struct.cli_bc_ctx, ptr %4, i32 0, i32 5
  store i32 60000, ptr %5, align 8
  %6 = load ptr, ptr %2, align 8
  %7 = getelementptr inbounds %struct.cli_bc_ctx, ptr %6, i32 0, i32 11
  store i32 -1, ptr %7, align 4
  ret void
}

; Function Attrs: nounwind uwtable
define ptr @cli_bytecode_context_alloc() #0 {
  %1 = alloca ptr, align 8
  %2 = alloca ptr, align 8
  %3 = call noalias ptr @calloc(i64 noundef 1, i64 noundef 1344) #9
  store ptr %3, ptr %2, align 8
  %4 = load ptr, ptr %2, align 8
  %5 = icmp ne ptr %4, null
  br i1 %5, label %7, label %6

6:                                                ; preds = %0
  call void (ptr, ...) @cli_errmsg(ptr noundef @.str)
  store ptr null, ptr %1, align 8
  br label %10

7:                                                ; preds = %0
  %8 = load ptr, ptr %2, align 8
  call void @bytecode_context_initialize(ptr noundef %8)
  %9 = load ptr, ptr %2, align 8
  store ptr %9, ptr %1, align 8
  br label %10

10:                                               ; preds = %7, %6
  %11 = load ptr, ptr %1, align 8
  ret ptr %11
}