; Function Attrs: nounwind uwtable
define noalias noundef ptr @cli_bytecode_context_alloc() local_unnamed_addr #0 {
  %1 = tail call noalias dereferenceable_or_null(1344) ptr @calloc(i64 noundef 1, i64 noundef 1344) #24
  %.not = icmp eq ptr %1, null
  br i1 %.not, label %2, label %3

2:                                                ; preds = %0
  tail call void (ptr, ...) @cli_errmsg(ptr noundef nonnull @.str) #25
  br label %6

3:                                                ; preds = %0
  %4 = getelementptr inbounds i8, ptr %1, i64 24
  store i32 60000, ptr %4, align 8
  %5 = getelementptr inbounds i8, ptr %1, i64 60
  store i32 -1, ptr %5, align 4
  br label %6

6:                                                ; preds = %3, %2
  ret ptr %1
}